; Function Attrs: mustprogress uwtable
define void @_ZN13duckdb_snappy11RawCompressEPKcmPcPm(ptr noundef %0, i64 noundef %1, ptr noundef %2, ptr noundef writeonly captures(none) %3) local_unnamed_addr #3 personality ptr @__gxx_personality_v0 {
  %5 = alloca %"class.duckdb_snappy::ByteArraySource", align 8
  %6 = alloca %"class.duckdb_snappy::UncheckedByteArraySink", align 8
  call void @llvm.lifetime.start.p0(i64 24, ptr nonnull %5) #27
  store ptr getelementptr inbounds nuw inrange(-16, 40) (i8, ptr @_ZTVN13duckdb_snappy15ByteArraySourceE, i64 16), ptr %5, align 8, !tbaa !49
  %7 = getelementptr inbounds nuw i8, ptr %5, i64 8
  store ptr %0, ptr %7, align 8, !tbaa !55
  %8 = getelementptr inbounds nuw i8, ptr %5, i64 16
  store i64 %1, ptr %8, align 8, !tbaa !58
  call void @llvm.lifetime.start.p0(i64 16, ptr nonnull %6) #27
  store ptr getelementptr inbounds nuw inrange(-16, 48) (i8, ptr @_ZTVN13duckdb_snappy22UncheckedByteArraySinkE, i64 16), ptr %6, align 8, !tbaa !49
  %9 = getelementptr inbounds nuw i8, ptr %6, i64 8
  store ptr %2, ptr %9, align 8, !tbaa !84
  %10 = invoke noundef i64 @_ZN13duckdb_snappy8CompressEPNS_6SourceEPNS_4SinkENS_18CompressionOptionsE(ptr noundef nonnull %5, ptr noundef nonnull %6, i32 1)
          to label %_ZN13duckdb_snappy11RawCompressEPKcmPcPmNS_18CompressionOptionsE.exit unwind label %11

11:                                               ; preds = %4
  %12 = landingpad { ptr, i32 }
          cleanup
  call void @_ZN13duckdb_snappy22UncheckedByteArraySinkD1Ev(ptr noundef nonnull align 8 dereferenceable(16) %6) #27
  call void @llvm.lifetime.end.p0(i64 16, ptr nonnull %6) #27
  call void @_ZN13duckdb_snappy15ByteArraySourceD1Ev(ptr noundef nonnull align 8 dereferenceable(24) %5) #27
  call void @llvm.lifetime.end.p0(i64 24, ptr nonnull %5) #27
  resume { ptr, i32 } %12

_ZN13duckdb_snappy11RawCompressEPKcmPcPmNS_18CompressionOptionsE.exit: ; preds = %4
  %13 = load ptr, ptr %9, align 8, !tbaa !84
  %14 = ptrtoint ptr %13 to i64
  %15 = ptrtoint ptr %2 to i64
  %16 = sub i64 %14, %15
  store i64 %16, ptr %3, align 8, !tbaa !6
  call void @_ZN13duckdb_snappy22UncheckedByteArraySinkD1Ev(ptr noundef nonnull align 8 dereferenceable(16) %6) #27
  call void @llvm.lifetime.end.p0(i64 16, ptr nonnull %6) #27
  call void @_ZN13duckdb_snappy15ByteArraySourceD1Ev(ptr noundef nonnull align 8 dereferenceable(24) %5) #27
  call void @llvm.lifetime.end.p0(i64 24, ptr nonnull %5) #27
  ret void
}